target datalayout = "e-m:e-p270:32:32-p271:32:32-p272:64:64-i64:64-i128:128-f80:128-n8:16:32:64-S128"
target triple = "x86_64-pc-linux-gnu"

%struct.URLContext = type { ptr, ptr, ptr, ptr, i32, i32, i32, i32, %struct.AVIOInterruptCB, i64, ptr, ptr, i32 }
%struct.AVIOInterruptCB = type { ptr, ptr }
%struct.UnixContext = type { ptr, %struct.sockaddr_un, i32, i32, i32, i32 }
%struct.sockaddr_un = type { i16, [108 x i8] }

; Function Attrs: nounwind uwtable
define internal i32 @unix_close(ptr noundef %0) #0 {
  %2 = alloca ptr, align 8
  %3 = alloca ptr, align 8
  store ptr %0, ptr %2, align 8, !tbaa !4
  call void @llvm.lifetime.start.p0(i64 8, ptr %3) #5
  %4 = load ptr, ptr %2, align 8, !tbaa !4
  %5 = getelementptr inbounds nuw %struct.URLContext, ptr %4, i32 0, i32 2
  %6 = load ptr, ptr %5, align 8, !tbaa !13
  store ptr %6, ptr %3, align 8, !tbaa !19
  %7 = load ptr, ptr %3, align 8, !tbaa !19
  %8 = getelementptr inbounds nuw %struct.UnixContext, ptr %7, i32 0, i32 3
  %9 = load i32, ptr %8, align 4, !tbaa !28
  %10 = icmp ne i32 %9, 0
  br i1 %10, label %11, label %17

11:                                               ; preds = %1
  %12 = load ptr, ptr %3, align 8, !tbaa !19
  %13 = getelementptr inbounds nuw %struct.UnixContext, ptr %12, i32 0, i32 1
  %14 = getelementptr inbounds nuw %struct.sockaddr_un, ptr %13, i32 0, i32 1
  %15 = getelementptr inbounds [108 x i8], ptr %14, i64 0, i64 0
  %16 = call i32 @unlink(ptr noundef %15) #5
  br label %17

17:                                               ; preds = %11, %1
  %18 = load ptr, ptr %3, align 8, !tbaa !19
  %19 = getelementptr inbounds nuw %struct.UnixContext, ptr %18, i32 0, i32 5
  %20 = load i32, ptr %19, align 4, !tbaa !29
  %21 = call i32 @close(i32 noundef %20)
  call void @llvm.lifetime.end.p0(i64 8, ptr %3) #5
  ret i32 0
}