; Function Attrs: nounwind uwtable
define internal noundef i32 @unix_close(ptr noundef readonly captures(none) %0) #0 {
  %2 = getelementptr inbounds nuw i8, ptr %0, i64 16
  %3 = load ptr, ptr %2, align 8, !tbaa !9
  %4 = getelementptr inbounds nuw i8, ptr %3, i64 124
  %5 = load i32, ptr %4, align 4, !tbaa !24
  %.not = icmp eq i32 %5, 0
  br i1 %.not, label %9, label %6

6:                                                ; preds = %1
  %7 = getelementptr inbounds nuw i8, ptr %3, i64 10
  %8 = tail call i32 @unlink(ptr noundef nonnull %7) #5
  br label %9

9:                                                ; preds = %6, %1
  %10 = getelementptr inbounds nuw i8, ptr %3, i64 132
  %11 = load i32, ptr %10, align 4, !tbaa !25
  %12 = tail call i32 @close(i32 noundef %11) #5
  ret i32 0
}